target datalayout = "e-m:e-p270:32:32-p271:32:32-p272:64:64-i64:64-i128:128-f80:128-n8:16:32:64-S128"
target triple = "x86_64-pc-linux-gnu"

%"class.zxing::qrcode::PatternResult" = type { %"class.zxing::Counted.base", %"class.zxing::Ref", %"class.std::vector", %"class.zxing::Ref.0", i32, i32, float, float }
%"class.zxing::Counted.base" = type <{ ptr, i32 }>
%"class.zxing::Ref" = type { ptr }
%"class.std::vector" = type { %"struct.std::_Vector_base" }
%"struct.std::_Vector_base" = type { %"struct.std::_Vector_base<zxing::Ref<zxing::qrcode::AlignmentPattern>, std::allocator<zxing::Ref<zxing::qrcode::AlignmentPattern>>>::_Vector_impl" }
%"struct.std::_Vector_base<zxing::Ref<zxing::qrcode::AlignmentPattern>, std::allocator<zxing::Ref<zxing::qrcode::AlignmentPattern>>>::_Vector_impl" = type { %"struct.std::_Vector_base<zxing::Ref<zxing::qrcode::AlignmentPattern>, std::allocator<zxing::Ref<zxing::qrcode::AlignmentPattern>>>::_Vector_impl_data" }
%"struct.std::_Vector_base<zxing::Ref<zxing::qrcode::AlignmentPattern>, std::allocator<zxing::Ref<zxing::qrcode::AlignmentPattern>>>::_Vector_impl_data" = type { ptr, ptr, ptr }
%"class.zxing::Ref.0" = type { ptr }
%"class.zxing::Counted" = type <{ ptr, i32, [4 x i8] }>

; Function Attrs: mustprogress nounwind uwtable
define linkonce_odr hidden void @_ZN5zxing7Counted7releaseEv(ptr noundef nonnull align 8 dereferenceable(12) %0) #1 comdat align 2 {
  %2 = alloca ptr, align 8
  store ptr %0, ptr %2, align 8
  %3 = load ptr, ptr %2, align 8
  %4 = getelementptr inbounds %"class.zxing::Counted", ptr %3, i32 0, i32 1
  %5 = load i32, ptr %4, align 8
  %6 = add i32 %5, -1
  store i32 %6, ptr %4, align 8
  %7 = getelementptr inbounds %"class.zxing::Counted", ptr %3, i32 0, i32 1
  %8 = load i32, ptr %7, align 8
  %9 = icmp eq i32 %8, 0
  br i1 %9, label %10, label %18

10:                                               ; preds = %1
  %11 = getelementptr inbounds %"class.zxing::Counted", ptr %3, i32 0, i32 1
  store i32 -559026175, ptr %11, align 8
  %12 = icmp eq ptr %3, null
  br i1 %12, label %17, label %13

13:                                               ; preds = %10
  %14 = load ptr, ptr %3, align 8
  %15 = getelementptr inbounds ptr, ptr %14, i64 1
  %16 = load ptr, ptr %15, align 8
  call void %16(ptr noundef nonnull align 8 dereferenceable(12) %3) #4
  br label %17

17:                                               ; preds = %13, %10
  br label %18

18:                                               ; preds = %17, %1
  ret void
}

; Function Attrs: mustprogress nounwind uwtable
define linkonce_odr hidden noundef ptr @_ZN5zxing7Counted6retainEv(ptr noundef nonnull align 8 dereferenceable(12) %0) #1 comdat align 2 {
  %2 = alloca ptr, align 8
  store ptr %0, ptr %2, align 8
  %3 = load ptr, ptr %2, align 8
  %4 = getelementptr inbounds %"class.zxing::Counted", ptr %3, i32 0, i32 1
  %5 = load i32, ptr %4, align 8
  %6 = add i32 %5, 1
  store i32 %6, ptr %4, align 8
  ret ptr %3
}

; Function Attrs: mustprogress nounwind uwtable
define linkonce_odr hidden void @_ZN5zxing3RefINS_6qrcode16AlignmentPatternEE5resetEPS2_(ptr noundef nonnull align 8 dereferenceable(8) %0, ptr noundef %1) #1 comdat align 2 {
  %3 = alloca ptr, align 8
  %4 = alloca ptr, align 8
  store ptr %0, ptr %3, align 8
  store ptr %1, ptr %4, align 8
  %5 = load ptr, ptr %3, align 8
  %6 = load ptr, ptr %4, align 8
  %7 = icmp ne ptr %6, null
  br i1 %7, label %8, label %11

8:                                                ; preds = %2
  %9 = load ptr, ptr %4, align 8
  %10 = call noundef ptr @_ZN5zxing7Counted6retainEv(ptr noundef nonnull align 8 dereferenceable(12) %9)
  br label %11

11:                                               ; preds = %8, %2
  %12 = getelementptr inbounds %"class.zxing::Ref.0", ptr %5, i32 0, i32 0
  %13 = load ptr, ptr %12, align 8
  %14 = icmp ne ptr %13, null
  br i1 %14, label %15, label %18

15:                                               ; preds = %11
  %16 = getelementptr inbounds %"class.zxing::Ref.0", ptr %5, i32 0, i32 0
  %17 = load ptr, ptr %16, align 8
  call void @_ZN5zxing7Counted7releaseEv(ptr noundef nonnull align 8 dereferenceable(12) %17)
  br label %18

18:                                               ; preds = %15, %11
  %19 = load ptr, ptr %4, align 8
  %20 = getelementptr inbounds %"class.zxing::Ref.0", ptr %5, i32 0, i32 0
  store ptr %19, ptr %20, align 8
  ret void
}

; Function Attrs: mustprogress nounwind uwtable
define linkonce_odr hidden noundef nonnull align 8 dereferenceable(8) ptr @_ZN5zxing3RefINS_6qrcode16AlignmentPatternEEaSERKS3_(ptr noundef nonnull align 8 dereferenceable(8) %0, ptr noundef nonnull align 8 dereferenceable(8) %1) #1 comdat align 2 {
  %3 = alloca ptr, align 8
  %4 = alloca ptr, align 8
  store ptr %0, ptr %3, align 8
  store ptr %1, ptr %4, align 8
  %5 = load ptr, ptr %3, align 8
  %6 = load ptr, ptr %4, align 8
  %7 = getelementptr inbounds %"class.zxing::Ref.0", ptr %6, i32 0, i32 0
  %8 = load ptr, ptr %7, align 8
  call void @_ZN5zxing3RefINS_6qrcode16AlignmentPatternEE5resetEPS2_(ptr noundef nonnull align 8 dereferenceable(8) %5, ptr noundef %8)
  ret ptr %5
}

; Function Attrs: mustprogress nounwind uwtable
define linkonce_odr hidden noundef nonnull align 8 dereferenceable(8) ptr @_ZNSt6vectorIN5zxing3RefINS0_6qrcode16AlignmentPatternEEESaIS4_EEixEm(ptr noundef nonnull align 8 dereferenceable(24) %0, i64 noundef %1) #1 comdat align 2 {
  %3 = alloca ptr, align 8
  %4 = alloca i64, align 8
  store ptr %0, ptr %3, align 8
  store i64 %1, ptr %4, align 8
  %5 = load ptr, ptr %3, align 8
  %6 = getelementptr inbounds %"struct.std::_Vector_base", ptr %5, i32 0, i32 0
  %7 = getelementptr inbounds %"struct.std::_Vector_base<zxing::Ref<zxing::qrcode::AlignmentPattern>, std::allocator<zxing::Ref<zxing::qrcode::AlignmentPattern>>>::_Vector_impl_data", ptr %6, i32 0, i32 0
  %8 = load ptr, ptr %7, align 8
  %9 = load i64, ptr %4, align 8
  %10 = getelementptr inbounds %"class.zxing::Ref.0", ptr %8, i64 %9
  ret ptr %10
}

; Function Attrs: mustprogress nounwind uwtable
define linkonce_odr hidden noundef i64 @_ZNKSt6vectorIN5zxing3RefINS0_6qrcode16AlignmentPatternEEESaIS4_EE4sizeEv(ptr noundef nonnull align 8 dereferenceable(24) %0) #1 comdat align 2 {
  %2 = alloca ptr, align 8
  store ptr %0, ptr %2, align 8
  %3 = load ptr, ptr %2, align 8
  %4 = getelementptr inbounds %"struct.std::_Vector_base", ptr %3, i32 0, i32 0
  %5 = getelementptr inbounds %"struct.std::_Vector_base<zxing::Ref<zxing::qrcode::AlignmentPattern>, std::allocator<zxing::Ref<zxing::qrcode::AlignmentPattern>>>::_Vector_impl_data", ptr %4, i32 0, i32 1
  %6 = load ptr, ptr %5, align 8
  %7 = getelementptr inbounds %"struct.std::_Vector_base", ptr %3, i32 0, i32 0
  %8 = getelementptr inbounds %"struct.std::_Vector_base<zxing::Ref<zxing::qrcode::AlignmentPattern>, std::allocator<zxing::Ref<zxing::qrcode::AlignmentPattern>>>::_Vector_impl_data", ptr %7, i32 0, i32 0
  %9 = load ptr, ptr %8, align 8
  %10 = ptrtoint ptr %6 to i64
  %11 = ptrtoint ptr %9 to i64
  %12 = sub i64 %10, %11
  %13 = sdiv exact i64 %12, 8
  ret i64 %13
}

; Function Attrs: mustprogress uwtable
define hidden void @_ZN5zxing6qrcode13PatternResult28setConfirmedAlignmentPatternEi(ptr noundef nonnull align 8 dereferenceable(72) %0, i32 noundef %1) #0 align 2 {
  %3 = alloca ptr, align 8
  %4 = alloca i32, align 4
  store ptr %0, ptr %3, align 8
  store i32 %1, ptr %4, align 4
  %5 = load ptr, ptr %3, align 8
  %6 = load i32, ptr %4, align 4
  %7 = getelementptr inbounds %"class.zxing::qrcode::PatternResult", ptr %5, i32 0, i32 2
  %8 = call noundef i64 @_ZNKSt6vectorIN5zxing3RefINS0_6qrcode16AlignmentPatternEEESaIS4_EE4sizeEv(ptr noundef nonnull align 8 dereferenceable(24) %7) #4
  %9 = trunc i64 %8 to i32
  %10 = icmp sge i32 %6, %9
  br i1 %10, label %11, label %12

11:                                               ; preds = %2
  br label %19

12:                                               ; preds = %2
  %13 = getelementptr inbounds %"class.zxing::qrcode::PatternResult", ptr %5, i32 0, i32 2
  %14 = load i32, ptr %4, align 4
  %15 = sext i32 %14 to i64
  %16 = call noundef nonnull align 8 dereferenceable(8) ptr @_ZNSt6vectorIN5zxing3RefINS0_6qrcode16AlignmentPatternEEESaIS4_EEixEm(ptr noundef nonnull align 8 dereferenceable(24) %13, i64 noundef %15) #4
  %17 = getelementptr inbounds %"class.zxing::qrcode::PatternResult", ptr %5, i32 0, i32 3
  %18 = call noundef nonnull align 8 dereferenceable(8) ptr @_ZN5zxing3RefINS_6qrcode16AlignmentPatternEEaSERKS3_(ptr noundef nonnull align 8 dereferenceable(8) %17, ptr noundef nonnull align 8 dereferenceable(8) %16)
  br label %19

19:                                               ; preds = %12, %11
  ret void
}