; Function Attrs: mustprogress uwtable
define hidden void @_ZN5zxing6qrcode13PatternResult28setConfirmedAlignmentPatternEi(ptr nocapture noundef nonnull align 8 dereferenceable(72) %0, i32 noundef %1) local_unnamed_addr #0 align 2 {
  %3 = getelementptr inbounds i8, ptr %0, i64 24
  %4 = getelementptr inbounds i8, ptr %0, i64 32
  %5 = load ptr, ptr %4, align 8
  %6 = load ptr, ptr %3, align 8
  %7 = ptrtoint ptr %5 to i64
  %8 = ptrtoint ptr %6 to i64
  %9 = sub i64 %7, %8
  %10 = lshr exact i64 %9, 3
  %11 = trunc i64 %10 to i32
  %.not = icmp sgt i32 %11, %1
  br i1 %.not, label %12, label %32

12:                                               ; preds = %2
  %13 = sext i32 %1 to i64
  %14 = getelementptr inbounds %"class.zxing::Ref.0", ptr %6, i64 %13
  %15 = getelementptr inbounds i8, ptr %0, i64 48
  %16 = load ptr, ptr %14, align 8
  %.not.i.i = icmp eq ptr %16, null
  br i1 %.not.i.i, label %21, label %17

17:                                               ; preds = %12
  %18 = getelementptr inbounds i8, ptr %16, i64 8
  %19 = load i32, ptr %18, align 8
  %20 = add i32 %19, 1
  store i32 %20, ptr %18, align 8
  br label %21

21:                                               ; preds = %17, %12
  %22 = load ptr, ptr %15, align 8
  %.not5.i.i = icmp eq ptr %22, null
  br i1 %.not5.i.i, label %_ZN5zxing3RefINS_6qrcode16AlignmentPatternEEaSERKS3_.exit, label %23

23:                                               ; preds = %21
  %24 = getelementptr inbounds i8, ptr %22, i64 8
  %25 = load i32, ptr %24, align 8
  %26 = add i32 %25, -1
  store i32 %26, ptr %24, align 8
  %27 = icmp eq i32 %26, 0
  br i1 %27, label %28, label %_ZN5zxing3RefINS_6qrcode16AlignmentPatternEEaSERKS3_.exit

28:                                               ; preds = %23
  store i32 -559026175, ptr %24, align 8
  %29 = load ptr, ptr %22, align 8
  %30 = getelementptr inbounds i8, ptr %29, i64 8
  %31 = load ptr, ptr %30, align 8
  tail call void %31(ptr noundef nonnull align 8 dereferenceable(12) %22) #4
  br label %_ZN5zxing3RefINS_6qrcode16AlignmentPatternEEaSERKS3_.exit

_ZN5zxing3RefINS_6qrcode16AlignmentPatternEEaSERKS3_.exit: ; preds = %21, %23, %28
  store ptr %16, ptr %15, align 8
  br label %32

32:                                               ; preds = %2, %_ZN5zxing3RefINS_6qrcode16AlignmentPatternEEaSERKS3_.exit
  ret void
}